#include <math.h>
#include <stdio.h>
#include <stdlib.h>
#include <string.h>

int main()
{
	int a[16],i,j,k,count,n;
	for(i=0;i<16;i++)
	{
		count=0;
		n=0;
		for(j=0;j<16;j++)
		{
			scanf("%d",&a[j]);
			if(a[0]==-1)
				break;
			if(a[j]==0)
				break;
			count++;
		}
		if(a[0]==-1)
			break;
		for(j=0;j<count;j++)
		{
			for(k=0;k<count;k++)
			{
				if(a[k]==2*a[j])
					n++;
			}
		}
		printf("%d\n",n);
	}
	return 0;
}